target datalayout = "e-m:e-p270:32:32-p271:32:32-p272:64:64-i64:64-i128:128-f80:128-n8:16:32:64-S128"
target triple = "x86_64-unknown-linux-gnu"

%"class.icu_75::QuantityFormatter" = type { [8 x ptr] }

; Function Attrs: mustprogress nounwind uwtable
define void @_ZN6icu_7517QuantityFormatter5resetEv(ptr noundef nonnull align 8 dereferenceable(64) %this) #0 align 2 {
entry:
  %this.addr = alloca ptr, align 8
  %i = alloca i32, align 4
  store ptr %this, ptr %this.addr, align 8
  %this1 = load ptr, ptr %this.addr, align 8
  store i32 0, ptr %i, align 4
  br label %for.cond

for.cond:                                         ; preds = %for.inc, %entry
  %0 = load i32, ptr %i, align 4
  %cmp = icmp slt i32 %0, 8
  br i1 %cmp, label %for.body, label %for.end

for.body:                                         ; preds = %for.cond
  %formatters = getelementptr inbounds %"class.icu_75::QuantityFormatter", ptr %this1, i32 0, i32 0
  %1 = load i32, ptr %i, align 4
  %idxprom = sext i32 %1 to i64
  %arrayidx = getelementptr inbounds [8 x ptr], ptr %formatters, i64 0, i64 %idxprom
  %2 = load ptr, ptr %arrayidx, align 8
  %isnull = icmp eq ptr %2, null
  br i1 %isnull, label %delete.end, label %delete.notnull

delete.notnull:                                   ; preds = %for.body
  call void @_ZN6icu_7515SimpleFormatterD1Ev(ptr noundef nonnull align 8 dereferenceable(72) %2) #8
  call void @_ZN6icu_757UMemorydlEPv(ptr noundef %2) #8
  br label %delete.end

delete.end:                                       ; preds = %delete.notnull, %for.body
  %formatters2 = getelementptr inbounds %"class.icu_75::QuantityFormatter", ptr %this1, i32 0, i32 0
  %3 = load i32, ptr %i, align 4
  %idxprom3 = sext i32 %3 to i64
  %arrayidx4 = getelementptr inbounds [8 x ptr], ptr %formatters2, i64 0, i64 %idxprom3
  store ptr null, ptr %arrayidx4, align 8
  br label %for.inc

for.inc:                                          ; preds = %delete.end
  %4 = load i32, ptr %i, align 4
  %inc = add nsw i32 %4, 1
  store i32 %inc, ptr %i, align 4
  br label %for.cond, !llvm.loop !9

for.end:                                          ; preds = %for.cond
  ret void
}