; Function Attrs: mustprogress nounwind uwtable
define void @_ZN6icu_7517QuantityFormatter5resetEv(ptr nocapture noundef nonnull align 8 dereferenceable(64) %this) local_unnamed_addr #0 align 2 {
entry:
  br label %for.body

for.body:                                         ; preds = %entry, %delete.end
  %indvars.iv = phi i64 [ 0, %entry ], [ %indvars.iv.next, %delete.end ]
  %arrayidx = getelementptr inbounds [8 x ptr], ptr %this, i64 0, i64 %indvars.iv
  %0 = load ptr, ptr %arrayidx, align 8
  %isnull = icmp eq ptr %0, null
  br i1 %isnull, label %delete.end, label %delete.notnull

delete.notnull:                                   ; preds = %for.body
  tail call void @_ZN6icu_7515SimpleFormatterD1Ev(ptr noundef nonnull align 8 dereferenceable(72) %0) #13
  tail call void @_ZN6icu_757UMemorydlEPv(ptr noundef nonnull %0) #13
  br label %delete.end

delete.end:                                       ; preds = %delete.notnull, %for.body
  store ptr null, ptr %arrayidx, align 8
  %indvars.iv.next = add nuw nsw i64 %indvars.iv, 1
  %exitcond.not = icmp eq i64 %indvars.iv.next, 8
  br i1 %exitcond.not, label %for.end, label %for.body, !llvm.loop !8

for.end:                                          ; preds = %delete.end
  ret void
}